target datalayout = "e-m:e-p270:32:32-p271:32:32-p272:64:64-i64:64-i128:128-f80:128-n8:16:32:64-S128"
target triple = "x86_64-pc-linux-gnu"

%struct.WebPDecBuffer = type { i32, i32, i32, i32, %union.anon, [4 x i32], ptr }
%union.anon = type { %struct.WebPYUVABuffer }
%struct.WebPYUVABuffer = type { ptr, ptr, ptr, ptr, i32, i32, i32, i32, i64, i64, i64, i64 }
%struct.WebPRGBABuffer = type { ptr, i32, i64 }

; Function Attrs: inlinehint nounwind uwtable
define internal i32 @WebPIsRGBMode(i32 noundef %0) #1 {
  %2 = alloca i32, align 4
  store i32 %0, ptr %2, align 4, !tbaa !3
  %3 = load i32, ptr %2, align 4, !tbaa !3
  %4 = icmp ult i32 %3, 11
  %5 = zext i1 %4 to i32
  ret i32 %5
}

; Function Attrs: nounwind uwtable
define hidden i32 @WebPFlipBuffer(ptr noundef %0) #0 {
  %2 = alloca i32, align 4
  %3 = alloca ptr, align 8
  %4 = alloca ptr, align 8
  %5 = alloca ptr, align 8
  %6 = alloca i64, align 8
  store ptr %0, ptr %3, align 8, !tbaa !7
  %7 = load ptr, ptr %3, align 8, !tbaa !7
  %8 = icmp eq ptr %7, null
  br i1 %8, label %9, label %10

9:                                                ; preds = %1
  store i32 2, ptr %2, align 4
  br label %123

10:                                               ; preds = %1
  %11 = load ptr, ptr %3, align 8, !tbaa !7
  %12 = getelementptr inbounds nuw %struct.WebPDecBuffer, ptr %11, i32 0, i32 0
  %13 = load i32, ptr %12, align 8, !tbaa !10
  %14 = call i32 @WebPIsRGBMode(i32 noundef %13)
  %15 = icmp ne i32 %14, 0
  br i1 %15, label %16, label %39

16:                                               ; preds = %10
  call void @llvm.lifetime.start.p0(i64 8, ptr %4) #7
  %17 = load ptr, ptr %3, align 8, !tbaa !7
  %18 = getelementptr inbounds nuw %struct.WebPDecBuffer, ptr %17, i32 0, i32 4
  store ptr %18, ptr %4, align 8, !tbaa !13
  %19 = load ptr, ptr %3, align 8, !tbaa !7
  %20 = getelementptr inbounds nuw %struct.WebPDecBuffer, ptr %19, i32 0, i32 2
  %21 = load i32, ptr %20, align 8, !tbaa !15
  %22 = sub nsw i32 %21, 1
  %23 = sext i32 %22 to i64
  %24 = load ptr, ptr %4, align 8, !tbaa !13
  %25 = getelementptr inbounds nuw %struct.WebPRGBABuffer, ptr %24, i32 0, i32 1
  %26 = load i32, ptr %25, align 8, !tbaa !16
  %27 = sext i32 %26 to i64
  %28 = mul nsw i64 %23, %27
  %29 = load ptr, ptr %4, align 8, !tbaa !13
  %30 = getelementptr inbounds nuw %struct.WebPRGBABuffer, ptr %29, i32 0, i32 0
  %31 = load ptr, ptr %30, align 8, !tbaa !19
  %32 = getelementptr inbounds i8, ptr %31, i64 %28
  store ptr %32, ptr %30, align 8, !tbaa !19
  %33 = load ptr, ptr %4, align 8, !tbaa !13
  %34 = getelementptr inbounds nuw %struct.WebPRGBABuffer, ptr %33, i32 0, i32 1
  %35 = load i32, ptr %34, align 8, !tbaa !16
  %36 = sub nsw i32 0, %35
  %37 = load ptr, ptr %4, align 8, !tbaa !13
  %38 = getelementptr inbounds nuw %struct.WebPRGBABuffer, ptr %37, i32 0, i32 1
  store i32 %36, ptr %38, align 8, !tbaa !16
  call void @llvm.lifetime.end.p0(i64 8, ptr %4) #7
  br label %122

39:                                               ; preds = %10
  call void @llvm.lifetime.start.p0(i64 8, ptr %5) #7
  %40 = load ptr, ptr %3, align 8, !tbaa !7
  %41 = getelementptr inbounds nuw %struct.WebPDecBuffer, ptr %40, i32 0, i32 4
  store ptr %41, ptr %5, align 8, !tbaa !20
  call void @llvm.lifetime.start.p0(i64 8, ptr %6) #7
  %42 = load ptr, ptr %3, align 8, !tbaa !7
  %43 = getelementptr inbounds nuw %struct.WebPDecBuffer, ptr %42, i32 0, i32 2
  %44 = load i32, ptr %43, align 8, !tbaa !15
  %45 = sext i32 %44 to i64
  store i64 %45, ptr %6, align 8, !tbaa !22
  %46 = load i64, ptr %6, align 8, !tbaa !22
  %47 = sub nsw i64 %46, 1
  %48 = load ptr, ptr %5, align 8, !tbaa !20
  %49 = getelementptr inbounds nuw %struct.WebPYUVABuffer, ptr %48, i32 0, i32 4
  %50 = load i32, ptr %49, align 8, !tbaa !23
  %51 = sext i32 %50 to i64
  %52 = mul nsw i64 %47, %51
  %53 = load ptr, ptr %5, align 8, !tbaa !20
  %54 = getelementptr inbounds nuw %struct.WebPYUVABuffer, ptr %53, i32 0, i32 0
  %55 = load ptr, ptr %54, align 8, !tbaa !25
  %56 = getelementptr inbounds i8, ptr %55, i64 %52
  store ptr %56, ptr %54, align 8, !tbaa !25
  %57 = load ptr, ptr %5, align 8, !tbaa !20
  %58 = getelementptr inbounds nuw %struct.WebPYUVABuffer, ptr %57, i32 0, i32 4
  %59 = load i32, ptr %58, align 8, !tbaa !23
  %60 = sub nsw i32 0, %59
  %61 = load ptr, ptr %5, align 8, !tbaa !20
  %62 = getelementptr inbounds nuw %struct.WebPYUVABuffer, ptr %61, i32 0, i32 4
  store i32 %60, ptr %62, align 8, !tbaa !23
  %63 = load i64, ptr %6, align 8, !tbaa !22
  %64 = sub nsw i64 %63, 1
  %65 = ashr i64 %64, 1
  %66 = load ptr, ptr %5, align 8, !tbaa !20
  %67 = getelementptr inbounds nuw %struct.WebPYUVABuffer, ptr %66, i32 0, i32 5
  %68 = load i32, ptr %67, align 4, !tbaa !26
  %69 = sext i32 %68 to i64
  %70 = mul nsw i64 %65, %69
  %71 = load ptr, ptr %5, align 8, !tbaa !20
  %72 = getelementptr inbounds nuw %struct.WebPYUVABuffer, ptr %71, i32 0, i32 1
  %73 = load ptr, ptr %72, align 8, !tbaa !27
  %74 = getelementptr inbounds i8, ptr %73, i64 %70
  store ptr %74, ptr %72, align 8, !tbaa !27
  %75 = load ptr, ptr %5, align 8, !tbaa !20
  %76 = getelementptr inbounds nuw %struct.WebPYUVABuffer, ptr %75, i32 0, i32 5
  %77 = load i32, ptr %76, align 4, !tbaa !26
  %78 = sub nsw i32 0, %77
  %79 = load ptr, ptr %5, align 8, !tbaa !20
  %80 = getelementptr inbounds nuw %struct.WebPYUVABuffer, ptr %79, i32 0, i32 5
  store i32 %78, ptr %80, align 4, !tbaa !26
  %81 = load i64, ptr %6, align 8, !tbaa !22
  %82 = sub nsw i64 %81, 1
  %83 = ashr i64 %82, 1
  %84 = load ptr, ptr %5, align 8, !tbaa !20
  %85 = getelementptr inbounds nuw %struct.WebPYUVABuffer, ptr %84, i32 0, i32 6
  %86 = load i32, ptr %85, align 8, !tbaa !28
  %87 = sext i32 %86 to i64
  %88 = mul nsw i64 %83, %87
  %89 = load ptr, ptr %5, align 8, !tbaa !20
  %90 = getelementptr inbounds nuw %struct.WebPYUVABuffer, ptr %89, i32 0, i32 2
  %91 = load ptr, ptr %90, align 8, !tbaa !29
  %92 = getelementptr inbounds i8, ptr %91, i64 %88
  store ptr %92, ptr %90, align 8, !tbaa !29
  %93 = load ptr, ptr %5, align 8, !tbaa !20
  %94 = getelementptr inbounds nuw %struct.WebPYUVABuffer, ptr %93, i32 0, i32 6
  %95 = load i32, ptr %94, align 8, !tbaa !28
  %96 = sub nsw i32 0, %95
  %97 = load ptr, ptr %5, align 8, !tbaa !20
  %98 = getelementptr inbounds nuw %struct.WebPYUVABuffer, ptr %97, i32 0, i32 6
  store i32 %96, ptr %98, align 8, !tbaa !28
  %99 = load ptr, ptr %5, align 8, !tbaa !20
  %100 = getelementptr inbounds nuw %struct.WebPYUVABuffer, ptr %99, i32 0, i32 3
  %101 = load ptr, ptr %100, align 8, !tbaa !30
  %102 = icmp ne ptr %101, null
  br i1 %102, label %103, label %121

103:                                              ; preds = %39
  %104 = load i64, ptr %6, align 8, !tbaa !22
  %105 = sub nsw i64 %104, 1
  %106 = load ptr, ptr %5, align 8, !tbaa !20
  %107 = getelementptr inbounds nuw %struct.WebPYUVABuffer, ptr %106, i32 0, i32 7
  %108 = load i32, ptr %107, align 4, !tbaa !31
  %109 = sext i32 %108 to i64
  %110 = mul nsw i64 %105, %109
  %111 = load ptr, ptr %5, align 8, !tbaa !20
  %112 = getelementptr inbounds nuw %struct.WebPYUVABuffer, ptr %111, i32 0, i32 3
  %113 = load ptr, ptr %112, align 8, !tbaa !30
  %114 = getelementptr inbounds i8, ptr %113, i64 %110
  store ptr %114, ptr %112, align 8, !tbaa !30
  %115 = load ptr, ptr %5, align 8, !tbaa !20
  %116 = getelementptr inbounds nuw %struct.WebPYUVABuffer, ptr %115, i32 0, i32 7
  %117 = load i32, ptr %116, align 4, !tbaa !31
  %118 = sub nsw i32 0, %117
  %119 = load ptr, ptr %5, align 8, !tbaa !20
  %120 = getelementptr inbounds nuw %struct.WebPYUVABuffer, ptr %119, i32 0, i32 7
  store i32 %118, ptr %120, align 4, !tbaa !31
  br label %121

121:                                              ; preds = %103, %39
  call void @llvm.lifetime.end.p0(i64 8, ptr %6) #7
  call void @llvm.lifetime.end.p0(i64 8, ptr %5) #7
  br label %122

122:                                              ; preds = %121, %16
  store i32 0, ptr %2, align 4
  br label %123

123:                                              ; preds = %122, %9
  %124 = load i32, ptr %2, align 4
  ret i32 %124
}