; Function Attrs: mustprogress nofree norecurse nosync nounwind willreturn memory(argmem: readwrite) uwtable
define hidden range(i32 0, 3) i32 @WebPFlipBuffer(ptr noundef captures(address_is_null) %0) local_unnamed_addr #1 {
  %2 = icmp eq ptr %0, null
  br i1 %2, label %54, label %3

3:                                                ; preds = %1
  %4 = load i32, ptr %0, align 8, !tbaa !3
  %5 = icmp ugt i32 %4, 10
  %6 = getelementptr inbounds nuw i8, ptr %0, i64 16
  %7 = getelementptr inbounds nuw i8, ptr %0, i64 8
  %8 = load i32, ptr %7, align 8, !tbaa !10
  %9 = load ptr, ptr %6, align 8, !tbaa !11
  br i1 %5, label %19, label %10

10:                                               ; preds = %3
  %11 = add nsw i32 %8, -1
  %12 = sext i32 %11 to i64
  %13 = getelementptr inbounds nuw i8, ptr %0, i64 24
  %14 = load i32, ptr %13, align 8, !tbaa !12
  %15 = sext i32 %14 to i64
  %16 = mul nsw i64 %12, %15
  %17 = getelementptr inbounds i8, ptr %9, i64 %16
  store ptr %17, ptr %6, align 8, !tbaa !15
  %18 = sub nsw i32 0, %14
  store i32 %18, ptr %13, align 8, !tbaa !12
  br label %54

19:                                               ; preds = %3
  %20 = sext i32 %8 to i64
  %21 = add nsw i64 %20, -1
  %22 = getelementptr inbounds nuw i8, ptr %0, i64 48
  %23 = load i32, ptr %22, align 8, !tbaa !16
  %24 = sext i32 %23 to i64
  %25 = mul nsw i64 %21, %24
  %26 = getelementptr inbounds i8, ptr %9, i64 %25
  store ptr %26, ptr %6, align 8, !tbaa !18
  %27 = sub nsw i32 0, %23
  store i32 %27, ptr %22, align 8, !tbaa !16
  %28 = ashr i64 %21, 1
  %29 = getelementptr inbounds nuw i8, ptr %0, i64 52
  %30 = load i32, ptr %29, align 4, !tbaa !19
  %31 = sext i32 %30 to i64
  %32 = mul nsw i64 %28, %31
  %33 = getelementptr inbounds nuw i8, ptr %0, i64 24
  %34 = load ptr, ptr %33, align 8, !tbaa !20
  %35 = getelementptr inbounds i8, ptr %34, i64 %32
  store ptr %35, ptr %33, align 8, !tbaa !20
  %36 = sub nsw i32 0, %30
  store i32 %36, ptr %29, align 4, !tbaa !19
  %37 = getelementptr inbounds nuw i8, ptr %0, i64 56
  %38 = load i32, ptr %37, align 8, !tbaa !21
  %39 = sext i32 %38 to i64
  %40 = mul nsw i64 %28, %39
  %41 = getelementptr inbounds nuw i8, ptr %0, i64 32
  %42 = load ptr, ptr %41, align 8, !tbaa !22
  %43 = getelementptr inbounds i8, ptr %42, i64 %40
  store ptr %43, ptr %41, align 8, !tbaa !22
  %44 = sub nsw i32 0, %38
  store i32 %44, ptr %37, align 8, !tbaa !21
  %45 = getelementptr inbounds nuw i8, ptr %0, i64 40
  %46 = load ptr, ptr %45, align 8, !tbaa !23
  %.not33 = icmp eq ptr %46, null
  br i1 %.not33, label %54, label %47

47:                                               ; preds = %19
  %48 = getelementptr inbounds nuw i8, ptr %0, i64 60
  %49 = load i32, ptr %48, align 4, !tbaa !24
  %50 = sext i32 %49 to i64
  %51 = mul nsw i64 %21, %50
  %52 = getelementptr inbounds i8, ptr %46, i64 %51
  store ptr %52, ptr %45, align 8, !tbaa !23
  %53 = sub nsw i32 0, %49
  store i32 %53, ptr %48, align 4, !tbaa !24
  br label %54

54:                                               ; preds = %10, %47, %19, %1
  %.0 = phi i32 [ 2, %1 ], [ 0, %19 ], [ 0, %47 ], [ 0, %10 ]
  ret i32 %.0
}